; ModuleID = '54/134.c'
source_filename = "54/134.c"
target datalayout = "e-m:e-p270:32:32-p271:32:32-p272:64:64-i64:64-f80:128-n8:16:32:64-S128"
target triple = "x86_64-pc-linux-gnu"

@.str = private unnamed_addr constant [6 x i8] c"%d %d\00", align 1
@.str.1 = private unnamed_addr constant [3 x i8] c"%d\00", align 1

; Function Attrs: noinline nounwind uwtable
define dso_local void @main() #0 {
  %1 = alloca i32, align 4
  %2 = alloca i32, align 4
  %3 = alloca i32, align 4
  %4 = alloca i32, align 4
  %5 = alloca i32, align 4
  %6 = alloca i32, align 4
  %7 = call i32 (i8*, ...) @__isoc99_scanf(i8* getelementptr inbounds ([6 x i8], [6 x i8]* @.str, i64 0, i64 0), i32* %1, i32* %2)
  store i32 1, i32* %4, align 4
  br label %8

8:                                                ; preds = %48, %0
  store i32 0, i32* %6, align 4
  %9 = load i32, i32* %4, align 4
  %10 = load i32, i32* %1, align 4
  %11 = mul nsw i32 %9, %10
  %12 = load i32, i32* %2, align 4
  %13 = add nsw i32 %11, %12
  store i32 %13, i32* %3, align 4
  store i32 1, i32* %5, align 4
  br label %14

14:                                               ; preds = %38, %8
  %15 = load i32, i32* %5, align 4
  %16 = load i32, i32* %1, align 4
  %17 = sub nsw i32 %16, 1
  %18 = icmp sle i32 %15, %17
  br i1 %18, label %19, label %41

19:                                               ; preds = %14
  %20 = load i32, i32* %3, align 4
  %21 = load i32, i32* %1, align 4
  %22 = sub nsw i32 %21, 1
  %23 = srem i32 %20, %22
  %24 = icmp ne i32 %23, 0
  br i1 %24, label %25, label %26

25:                                               ; preds = %19
  br label %41

26:                                               ; preds = %19
  %27 = load i32, i32* %3, align 4
  %28 = load i32, i32* %1, align 4
  %29 = mul nsw i32 %27, %28
  %30 = load i32, i32* %1, align 4
  %31 = sub nsw i32 %30, 1
  %32 = sdiv i32 %29, %31
  %33 = load i32, i32* %2, align 4
  %34 = add nsw i32 %32, %33
  store i32 %34, i32* %3, align 4
  %35 = load i32, i32* %6, align 4
  %36 = add nsw i32 %35, 1
  store i32 %36, i32* %6, align 4
  br label %37

37:                                               ; preds = %26
  br label %38

38:                                               ; preds = %37
  %39 = load i32, i32* %5, align 4
  %40 = add nsw i32 %39, 1
  store i32 %40, i32* %5, align 4
  br label %14

41:                                               ; preds = %25, %14
  %42 = load i32, i32* %6, align 4
  %43 = load i32, i32* %1, align 4
  %44 = sub nsw i32 %43, 1
  %45 = icmp eq i32 %42, %44
  br i1 %45, label %46, label %47

46:                                               ; preds = %41
  br label %51

47:                                               ; preds = %41
  br label %48

48:                                               ; preds = %47
  %49 = load i32, i32* %4, align 4
  %50 = add nsw i32 %49, 1
  store i32 %50, i32* %4, align 4
  br label %8

51:                                               ; preds = %46
  %52 = load i32, i32* %3, align 4
  %53 = call i32 (i8*, ...) @printf(i8* getelementptr inbounds ([3 x i8], [3 x i8]* @.str.1, i64 0, i64 0), i32 %52)
  %54 = call i32 @getchar()
  %55 = call i32 @getchar()
  ret void
}

declare dso_local i32 @__isoc99_scanf(i8*, ...) #1

declare dso_local i32 @printf(i8*, ...) #1

declare dso_local i32 @getchar() #1


!llvm.module.flags = !{!0}
!llvm.ident = !{!1}

!0 = !{i32 1, !"wchar_size", i32 4}
!1 = !{!"clang version 10.0.0-4ubuntu1 "}
